; Function Attrs: inlinehint mustprogress nounwind willreturn uwtable
define internal fastcc void @Cbs_ManAssign(ptr noundef captures(none) %0, ptr noundef %1, i32 noundef %2, ptr noundef %3, ptr noundef %4) unnamed_addr #11 {
  %6 = ptrtoint ptr %1 to i64
  %7 = and i64 %6, -2
  %8 = inttoptr i64 %7 to ptr
  %9 = load i64, ptr %8, align 4
  %10 = shl i64 %6, 62
  %11 = and i64 %10, 4611686018427387904
  %12 = and i64 %9, -4611686019501129729
  %13 = or disjoint i64 %11, %12
  %14 = xor i64 %13, 4611686019501129728
  store i64 %14, ptr %8, align 4
  %15 = getelementptr inbounds nuw i8, ptr %0, i64 60
  %16 = load i32, ptr %15, align 4, !tbaa !44
  %17 = getelementptr inbounds nuw i8, ptr %8, i64 8
  store i32 %16, ptr %17, align 4, !tbaa !82
  %18 = getelementptr inbounds nuw i8, ptr %0, i64 64
  %19 = load i32, ptr %18, align 8, !tbaa !50
  %20 = icmp eq i32 %16, %19
  br i1 %20, label %21, label %._crit_edge.i

._crit_edge.i:                                    ; preds = %5
  %.phi.trans.insert.i = getelementptr inbounds nuw i8, ptr %0, i64 72
  %.pre.i = load ptr, ptr %.phi.trans.insert.i, align 8, !tbaa !51
  br label %Cbs_QuePush.exit

21:                                               ; preds = %5
  %22 = shl nsw i32 %16, 1
  store i32 %22, ptr %18, align 8, !tbaa !50
  %23 = getelementptr inbounds nuw i8, ptr %0, i64 72
  %24 = load ptr, ptr %23, align 8, !tbaa !51
  %.not.i = icmp eq ptr %24, null
  %25 = sext i32 %22 to i64
  %26 = shl nsw i64 %25, 3
  br i1 %.not.i, label %29, label %27

27:                                               ; preds = %21
  %28 = tail call ptr @realloc(ptr noundef nonnull %24, i64 noundef %26) #25
  %.pre12.pre.i = load i32, ptr %15, align 4, !tbaa !49
  br label %31

29:                                               ; preds = %21
  %30 = tail call noalias ptr @malloc(i64 noundef %26) #23
  br label %31

31:                                               ; preds = %29, %27
  %.pre12.i = phi i32 [ %.pre12.pre.i, %27 ], [ %16, %29 ]
  %32 = phi ptr [ %28, %27 ], [ %30, %29 ]
  store ptr %32, ptr %23, align 8, !tbaa !51
  br label %Cbs_QuePush.exit

Cbs_QuePush.exit:                                 ; preds = %._crit_edge.i, %31
  %33 = phi i32 [ %16, %._crit_edge.i ], [ %.pre12.i, %31 ]
  %34 = phi ptr [ %.pre.i, %._crit_edge.i ], [ %32, %31 ]
  %35 = add nsw i32 %33, 1
  store i32 %35, ptr %15, align 4, !tbaa !49
  %36 = sext i32 %33 to i64
  %37 = getelementptr inbounds ptr, ptr %34, i64 %36
  store ptr %8, ptr %37, align 8, !tbaa !45
  %38 = getelementptr inbounds nuw i8, ptr %0, i64 136
  %39 = load ptr, ptr %38, align 8, !tbaa !36
  %40 = getelementptr inbounds nuw i8, ptr %39, i64 4
  %41 = load i32, ptr %40, align 4, !tbaa !30
  %42 = load i32, ptr %39, align 8, !tbaa !33
  %43 = icmp eq i32 %41, %42
  br i1 %43, label %44, label %.Vec_IntGrow.exit10_crit_edge.i

.Vec_IntGrow.exit10_crit_edge.i:                  ; preds = %Cbs_QuePush.exit
  %.phi.trans.insert.i19 = getelementptr inbounds nuw i8, ptr %39, i64 8
  %.pre.i20 = load ptr, ptr %.phi.trans.insert.i19, align 8, !tbaa !34
  br label %Vec_IntPush.exit

44:                                               ; preds = %Cbs_QuePush.exit
  %45 = icmp slt i32 %41, 16
  br i1 %45, label %46, label %54

46:                                               ; preds = %44
  %47 = getelementptr inbounds nuw i8, ptr %39, i64 8
  %48 = load ptr, ptr %47, align 8, !tbaa !34
  %.not9.i.i = icmp eq ptr %48, null
  br i1 %.not9.i.i, label %51, label %49

49:                                               ; preds = %46
  %50 = tail call dereferenceable_or_null(64) ptr @realloc(ptr noundef nonnull %48, i64 noundef 64) #25
  br label %Vec_IntGrow.exit.i

51:                                               ; preds = %46
  %52 = tail call noalias dereferenceable_or_null(64) ptr @malloc(i64 noundef 64) #23
  br label %Vec_IntGrow.exit.i

Vec_IntGrow.exit.i:                               ; preds = %51, %49
  %53 = phi ptr [ %50, %49 ], [ %52, %51 ]
  store ptr %53, ptr %47, align 8, !tbaa !34
  store i32 16, ptr %39, align 8, !tbaa !33
  br label %Vec_IntPush.exit

54:                                               ; preds = %44
  %55 = shl nuw nsw i32 %41, 1
  %56 = getelementptr inbounds nuw i8, ptr %39, i64 8
  %57 = load ptr, ptr %56, align 8, !tbaa !34
  %.not9.i9.i = icmp eq ptr %57, null
  %58 = zext nneg i32 %55 to i64
  %59 = shl nuw nsw i64 %58, 2
  br i1 %.not9.i9.i, label %62, label %60

60:                                               ; preds = %54
  %61 = tail call ptr @realloc(ptr noundef nonnull %57, i64 noundef %59) #25
  br label %64

62:                                               ; preds = %54
  %63 = tail call noalias ptr @malloc(i64 noundef %59) #23
  br label %64

64:                                               ; preds = %62, %60
  %65 = phi ptr [ %61, %60 ], [ %63, %62 ]
  store ptr %65, ptr %56, align 8, !tbaa !34
  store i32 %55, ptr %39, align 8, !tbaa !33
  br label %Vec_IntPush.exit

Vec_IntPush.exit:                                 ; preds = %.Vec_IntGrow.exit10_crit_edge.i, %Vec_IntGrow.exit.i, %64
  %66 = phi ptr [ %.pre.i20, %.Vec_IntGrow.exit10_crit_edge.i ], [ %65, %64 ], [ %53, %Vec_IntGrow.exit.i ]
  %67 = load i32, ptr %40, align 4, !tbaa !30
  %68 = add nsw i32 %67, 1
  store i32 %68, ptr %40, align 4, !tbaa !30
  %69 = sext i32 %67 to i64
  %70 = getelementptr inbounds i32, ptr %66, i64 %69
  store i32 %2, ptr %70, align 4, !tbaa !80
  %71 = load ptr, ptr %38, align 8, !tbaa !36
  %.not = icmp eq ptr %3, null
  br i1 %.not, label %77, label %72

72:                                               ; preds = %Vec_IntPush.exit
  %73 = ptrtoint ptr %3 to i64
  %74 = sub i64 %73, %7
  %75 = sdiv exact i64 %74, 12
  %76 = trunc i64 %75 to i32
  br label %77

77:                                               ; preds = %Vec_IntPush.exit, %72
  %78 = phi i32 [ %76, %72 ], [ 0, %Vec_IntPush.exit ]
  %79 = getelementptr inbounds nuw i8, ptr %71, i64 4
  %80 = load i32, ptr %79, align 4, !tbaa !30
  %81 = load i32, ptr %71, align 8, !tbaa !33
  %82 = icmp eq i32 %80, %81
  br i1 %82, label %83, label %.Vec_IntGrow.exit10_crit_edge.i21

.Vec_IntGrow.exit10_crit_edge.i21:                ; preds = %77
  %.phi.trans.insert.i22 = getelementptr inbounds nuw i8, ptr %71, i64 8
  %.pre.i23 = load ptr, ptr %.phi.trans.insert.i22, align 8, !tbaa !34
  br label %Vec_IntPush.exit27

83:                                               ; preds = %77
  %84 = icmp slt i32 %80, 16
  br i1 %84, label %85, label %93

85:                                               ; preds = %83
  %86 = getelementptr inbounds nuw i8, ptr %71, i64 8
  %87 = load ptr, ptr %86, align 8, !tbaa !34
  %.not9.i.i25 = icmp eq ptr %87, null
  br i1 %.not9.i.i25, label %90, label %88

88:                                               ; preds = %85
  %89 = tail call dereferenceable_or_null(64) ptr @realloc(ptr noundef nonnull %87, i64 noundef 64) #25
  br label %Vec_IntGrow.exit.i26

90:                                               ; preds = %85
  %91 = tail call noalias dereferenceable_or_null(64) ptr @malloc(i64 noundef 64) #23
  br label %Vec_IntGrow.exit.i26

Vec_IntGrow.exit.i26:                             ; preds = %90, %88
  %92 = phi ptr [ %89, %88 ], [ %91, %90 ]
  store ptr %92, ptr %86, align 8, !tbaa !34
  store i32 16, ptr %71, align 8, !tbaa !33
  br label %Vec_IntPush.exit27

93:                                               ; preds = %83
  %94 = shl nuw nsw i32 %80, 1
  %95 = getelementptr inbounds nuw i8, ptr %71, i64 8
  %96 = load ptr, ptr %95, align 8, !tbaa !34
  %.not9.i9.i24 = icmp eq ptr %96, null
  %97 = zext nneg i32 %94 to i64
  %98 = shl nuw nsw i64 %97, 2
  br i1 %.not9.i9.i24, label %101, label %99

99:                                               ; preds = %93
  %100 = tail call ptr @realloc(ptr noundef nonnull %96, i64 noundef %98) #25
  br label %103

101:                                              ; preds = %93
  %102 = tail call noalias ptr @malloc(i64 noundef %98) #23
  br label %103

103:                                              ; preds = %101, %99
  %104 = phi ptr [ %100, %99 ], [ %102, %101 ]
  store ptr %104, ptr %95, align 8, !tbaa !34
  store i32 %94, ptr %71, align 8, !tbaa !33
  br label %Vec_IntPush.exit27

Vec_IntPush.exit27:                               ; preds = %.Vec_IntGrow.exit10_crit_edge.i21, %Vec_IntGrow.exit.i26, %103
  %105 = phi ptr [ %.pre.i23, %.Vec_IntGrow.exit10_crit_edge.i21 ], [ %104, %103 ], [ %92, %Vec_IntGrow.exit.i26 ]
  %106 = load i32, ptr %79, align 4, !tbaa !30
  %107 = add nsw i32 %106, 1
  store i32 %107, ptr %79, align 4, !tbaa !30
  %108 = sext i32 %106 to i64
  %109 = getelementptr inbounds i32, ptr %105, i64 %108
  store i32 %78, ptr %109, align 4, !tbaa !80
  %110 = load ptr, ptr %38, align 8, !tbaa !36
  %.not18 = icmp eq ptr %4, null
  br i1 %.not18, label %116, label %111

111:                                              ; preds = %Vec_IntPush.exit27
  %112 = ptrtoint ptr %4 to i64
  %113 = sub i64 %112, %7
  %114 = sdiv exact i64 %113, 12
  %115 = trunc i64 %114 to i32
  br label %116

116:                                              ; preds = %Vec_IntPush.exit27, %111
  %117 = phi i32 [ %115, %111 ], [ 0, %Vec_IntPush.exit27 ]
  %118 = getelementptr inbounds nuw i8, ptr %110, i64 4
  %119 = load i32, ptr %118, align 4, !tbaa !30
  %120 = load i32, ptr %110, align 8, !tbaa !33
  %121 = icmp eq i32 %119, %120
  br i1 %121, label %122, label %.Vec_IntGrow.exit10_crit_edge.i28

.Vec_IntGrow.exit10_crit_edge.i28:                ; preds = %116
  %.phi.trans.insert.i29 = getelementptr inbounds nuw i8, ptr %110, i64 8
  %.pre.i30 = load ptr, ptr %.phi.trans.insert.i29, align 8, !tbaa !34
  br label %Vec_IntPush.exit34

122:                                              ; preds = %116
  %123 = icmp slt i32 %119, 16
  br i1 %123, label %124, label %132

124:                                              ; preds = %122
  %125 = getelementptr inbounds nuw i8, ptr %110, i64 8
  %126 = load ptr, ptr %125, align 8, !tbaa !34
  %.not9.i.i32 = icmp eq ptr %126, null
  br i1 %.not9.i.i32, label %129, label %127

127:                                              ; preds = %124
  %128 = tail call dereferenceable_or_null(64) ptr @realloc(ptr noundef nonnull %126, i64 noundef 64) #25
  br label %Vec_IntGrow.exit.i33

129:                                              ; preds = %124
  %130 = tail call noalias dereferenceable_or_null(64) ptr @malloc(i64 noundef 64) #23
  br label %Vec_IntGrow.exit.i33

Vec_IntGrow.exit.i33:                             ; preds = %129, %127
  %131 = phi ptr [ %128, %127 ], [ %130, %129 ]
  store ptr %131, ptr %125, align 8, !tbaa !34
  store i32 16, ptr %110, align 8, !tbaa !33
  br label %Vec_IntPush.exit34

132:                                              ; preds = %122
  %133 = shl nuw nsw i32 %119, 1
  %134 = getelementptr inbounds nuw i8, ptr %110, i64 8
  %135 = load ptr, ptr %134, align 8, !tbaa !34
  %.not9.i9.i31 = icmp eq ptr %135, null
  %136 = zext nneg i32 %133 to i64
  %137 = shl nuw nsw i64 %136, 2
  br i1 %.not9.i9.i31, label %140, label %138

138:                                              ; preds = %132
  %139 = tail call ptr @realloc(ptr noundef nonnull %135, i64 noundef %137) #25
  br label %142

140:                                              ; preds = %132
  %141 = tail call noalias ptr @malloc(i64 noundef %137) #23
  br label %142

142:                                              ; preds = %140, %138
  %143 = phi ptr [ %139, %138 ], [ %141, %140 ]
  store ptr %143, ptr %134, align 8, !tbaa !34
  store i32 %133, ptr %110, align 8, !tbaa !33
  br label %Vec_IntPush.exit34

Vec_IntPush.exit34:                               ; preds = %.Vec_IntGrow.exit10_crit_edge.i28, %Vec_IntGrow.exit.i33, %142
  %144 = phi ptr [ %.pre.i30, %.Vec_IntGrow.exit10_crit_edge.i28 ], [ %143, %142 ], [ %131, %Vec_IntGrow.exit.i33 ]
  %145 = load i32, ptr %118, align 4, !tbaa !30
  %146 = add nsw i32 %145, 1
  store i32 %146, ptr %118, align 4, !tbaa !30
  %147 = sext i32 %145 to i64
  %148 = getelementptr inbounds i32, ptr %144, i64 %147
  store i32 %117, ptr %148, align 4, !tbaa !80
  ret void
}